# SymbolsHelper-Confirmed: 5.9.1+git20150601.1653 amd64 i386
libKF5BalooEngine.so.2 libkf5balooengine2 #MINVER#
 _ZN5Baloo10DocumentDB3delEy@Base 5.3.0+git20150512
 _ZN5Baloo10DocumentDB3getEy@Base 5.3.0+git20150512
 _ZN5Baloo10DocumentDB3putEyRK7QVectorI10QByteArrayE@Base 5.3.0+git20150512
 _ZN5Baloo10DocumentDB4openEPKcP7MDB_txn@Base 5.3.0+git20150512
 _ZN5Baloo10DocumentDB4sizeEv@Base 5.3.0+git20150512
 _ZN5Baloo10DocumentDB6createEPKcP7MDB_txn@Base 5.3.0+git20150512
 _ZN5Baloo10DocumentDB8containsEy@Base 5.3.0+git20150512
 _ZN5Baloo10DocumentDBC1EjP7MDB_txn@Base 5.3.0+git20150512
 _ZN5Baloo10DocumentDBC2EjP7MDB_txn@Base 5.3.0+git20150512
 _ZN5Baloo10DocumentDBD1Ev@Base 5.3.0+git20150512
 _ZN5Baloo10DocumentDBD2Ev@Base 5.3.0+git20150512
 _ZN5Baloo10PositionDB3delERK10QByteArray@Base 5.3.0+git20150512
 _ZN5Baloo10PositionDB3getERK10QByteArray@Base 5.3.0+git20150512
 _ZN5Baloo10PositionDB3putERK10QByteArrayRK7QVectorINS_12PositionInfoEE@Base 5.3.0+git20150512
 _ZN5Baloo10PositionDB4iterERK10QByteArray@Base 5.3.0+git20150512
 _ZN5Baloo10PositionDB4openEP7MDB_txn@Base 5.3.0+git20150512
 _ZN5Baloo10PositionDB6createEP7MDB_txn@Base 5.3.0+git20150512
 _ZN5Baloo10PositionDBC1EjP7MDB_txn@Base 5.3.0+git20150512
 _ZN5Baloo10PositionDBC2EjP7MDB_txn@Base 5.3.0+git20150512
 _ZN5Baloo10PositionDBD1Ev@Base 5.3.0+git20150512
 _ZN5Baloo10PositionDBD2Ev@Base 5.3.0+git20150512
 _ZN5Baloo10getFixed32EP10QByteArrayPj@Base 5.3.0+git20150512
 _ZN5Baloo10getFixed64EP10QByteArrayPy@Base 5.3.0+git20150512
 _ZN5Baloo10putFixed32EP10QByteArrayj@Base 5.3.0+git20150512
 _ZN5Baloo10putFixed64EP10QByteArrayy@Base 5.3.0+git20150512
 _ZN5Baloo11EngineQueryC1E7QVectorIS0_ENS0_9OperationE@Base 5.3.0+git20150512
 _ZN5Baloo11EngineQueryC1ERK10QByteArrayNS0_9OperationEi@Base 5.3.0+git20150512
 _ZN5Baloo11EngineQueryC1ERK10QByteArrayi@Base 5.3.0+git20150512
 (arch=i386)_ZN5Baloo11EngineQueryC1ERKS0_@Base 5.9.0+git20150512.1512
 _ZN5Baloo11EngineQueryC1Ev@Base 5.3.0+git20150512
 _ZN5Baloo11EngineQueryC2E7QVectorIS0_ENS0_9OperationE@Base 5.3.0+git20150512
 _ZN5Baloo11EngineQueryC2ERK10QByteArrayNS0_9OperationEi@Base 5.3.0+git20150512
 _ZN5Baloo11EngineQueryC2ERK10QByteArrayi@Base 5.3.0+git20150512
 (arch=i386)_ZN5Baloo11EngineQueryC2ERKS0_@Base 5.9.0+git20150512.1512
 _ZN5Baloo11EngineQueryC2Ev@Base 5.3.0+git20150512
 _ZN5Baloo11QueryParser10parseQueryERK7QStringS3_@Base 5.3.0+git20150512
 _ZN5Baloo11QueryParser18setAutoExapandSizeEi@Base 5.3.0+git20150512
 _ZN5Baloo11QueryParserC1Ev@Base 5.3.0+git20150512
 _ZN5Baloo11QueryParserC2Ev@Base 5.3.0+git20150512
 _ZN5Baloo11Transaction10docUrlIterEy@Base 5.3.0+git20150512
 _ZN5Baloo11Transaction10documentIdERK10QByteArray@Base 5.9.1+git20150601.1653
 _ZN5Baloo11Transaction11addDocumentERKNS_8DocumentE@Base 5.3.0+git20150512
 _ZN5Baloo11Transaction11documentUrlEy@Base 5.3.0+git20150512
 _ZN5Baloo11Transaction11hasDocumentEy@Base 5.3.0+git20150512
 _ZN5Baloo11Transaction11setPhaseOneEy@Base 5.3.0+git20150512
 _ZN5Baloo11Transaction12documentDataEy@Base 5.3.0+git20150512
 _ZN5Baloo11Transaction12phaseOneSizeEv@Base 5.3.0+git20150512
 _ZN5Baloo11Transaction13documentCTimeEy@Base 5.3.0+git20150512
 _ZN5Baloo11Transaction13documentMTimeEy@Base 5.3.0+git20150512
 _ZN5Baloo11Transaction13documentTermsEy@Base 5.3.0+git20150512
 _ZN5Baloo11Transaction14mTimeRangeIterEjj@Base 5.3.0+git20150512
 _ZN5Baloo11Transaction14removeDocumentEy@Base 5.3.0+git20150512
 _ZN5Baloo11Transaction14removePhaseOneEy@Base 5.3.0+git20150512
 _ZN5Baloo11Transaction14renameFilePathEyRKNS_8DocumentE@Base 5.3.0+git20150512
 _ZN5Baloo11Transaction15postingIteratorERKNS_11EngineQueryE@Base 5.3.0+git20150512
 _ZN5Baloo11Transaction15replaceDocumentERKNS_8DocumentE6QFlagsINS_17DocumentOperationEE@Base 5.9.1+git20150601.1653
 _ZN5Baloo11Transaction16fetchPhaseOneIdsEi@Base 5.3.0+git20150512
 _ZN5Baloo11Transaction17removeRecursivelyEy@Base 5.9.1+git20150601.1653
 _ZN5Baloo11Transaction18documentXattrTermsEy@Base 5.3.0+git20150512
 _ZN5Baloo11Transaction19postingCompIteratorERK10QByteArrayS3_NS_9PostingDB10ComparatorE@Base 5.3.0+git20150512
 _ZN5Baloo11Transaction21documentFileNameTermsEy@Base 5.3.0+git20150512
 _ZN5Baloo11Transaction22fetchTermsStartingWithERK10QByteArray@Base 5.3.0+git20150512
 _ZN5Baloo11Transaction4execERKNS_11EngineQueryEi@Base 5.3.0+git20150512
 _ZN5Baloo11Transaction4sizeEv@Base 5.3.0+git20150512
 _ZN5Baloo11Transaction5abortEv@Base 5.3.0+git20150512
 _ZN5Baloo11Transaction6commitEv@Base 5.3.0+git20150512
 _ZN5Baloo11Transaction9mTimeIterEjNS_7MTimeDB10ComparatorE@Base 5.3.0+git20150512
 _ZN5Baloo11TransactionC1EPNS_8DatabaseENS0_15TransactionTypeE@Base 5.3.0+git20150512
 _ZN5Baloo11TransactionC1ERKNS_8DatabaseENS0_15TransactionTypeE@Base 5.3.0+git20150512
 _ZN5Baloo11TransactionC2EPNS_8DatabaseENS0_15TransactionTypeE@Base 5.3.0+git20150512
 _ZN5Baloo11TransactionC2ERKNS_8DatabaseENS0_15TransactionTypeE@Base 5.3.0+git20150512
 _ZN5Baloo11TransactionD1Ev@Base 5.3.0+git20150512
 _ZN5Baloo11TransactionD2Ev@Base 5.3.0+git20150512
 _ZN5Baloo11getVarint32EP10QByteArrayPj@Base 5.3.0+git20150512
 _ZN5Baloo11getVarint64EP10QByteArrayPy@Base 5.3.0+git20150512
 _ZN5Baloo11putVarint32EP10QByteArrayj@Base 5.3.0+git20150512
 _ZN5Baloo11putVarint64EP10QByteArrayy@Base 5.3.0+git20150512
 _ZN5Baloo12DocumentIdDB10fetchItemsEi@Base 5.3.0+git20150512
 _ZN5Baloo12DocumentIdDB3delEy@Base 5.3.0+git20150512
 _ZN5Baloo12DocumentIdDB3putEy@Base 5.3.0+git20150512
 _ZN5Baloo12DocumentIdDB4openEP7MDB_txn@Base 5.3.0+git20150512
 _ZN5Baloo12DocumentIdDB4sizeEv@Base 5.3.0+git20150512
 _ZN5Baloo12DocumentIdDB6createEP7MDB_txn@Base 5.3.0+git20150512
 _ZN5Baloo12DocumentIdDB8containsEy@Base 5.3.0+git20150512
 _ZN5Baloo12DocumentIdDBC1EjP7MDB_txn@Base 5.3.0+git20150512
 _ZN5Baloo12DocumentIdDBC2EjP7MDB_txn@Base 5.3.0+git20150512
 _ZN5Baloo12DocumentIdDBD1Ev@Base 5.3.0+git20150512
 _ZN5Baloo12DocumentIdDBD2Ev@Base 5.3.0+git20150512
 _ZN5Baloo12IdFilenameDB3delEy@Base 5.3.0+git20150512
 _ZN5Baloo12IdFilenameDB3getEy@Base 5.3.0+git20150512
 _ZN5Baloo12IdFilenameDB3putEyRKNS0_8FilePathE@Base 5.3.0+git20150512
 _ZN5Baloo12IdFilenameDB4openEP7MDB_txn@Base 5.3.0+git20150512
 _ZN5Baloo12IdFilenameDB6createEP7MDB_txn@Base 5.3.0+git20150512
 _ZN5Baloo12IdFilenameDB8containsEy@Base 5.3.0+git20150512
 _ZN5Baloo12IdFilenameDBC1EjP7MDB_txn@Base 5.3.0+git20150512
 _ZN5Baloo12IdFilenameDBC2EjP7MDB_txn@Base 5.3.0+git20150512
 _ZN5Baloo12IdFilenameDBD1Ev@Base 5.3.0+git20150512
 _ZN5Baloo12IdFilenameDBD2Ev@Base 5.3.0+git20150512
 _ZN5Baloo12PostingCodec6decodeERK10QByteArray@Base 5.3.0+git20150512
 _ZN5Baloo12PostingCodec6encodeERK7QVectorIyE@Base 5.3.0+git20150512
 _ZN5Baloo12PostingCodecC1Ev@Base 5.3.0+git20150512
 _ZN5Baloo12PostingCodecC2Ev@Base 5.3.0+git20150512
 _ZN5Baloo12varintLengthEy@Base 5.3.0+git20150512
 _ZN5Baloo13DocTermsCodec6decodeERK10QByteArray@Base 5.3.0+git20150512
 _ZN5Baloo13DocTermsCodec6encodeERK7QVectorI10QByteArrayE@Base 5.3.0+git20150512
 _ZN5Baloo13DocTermsCodecC1Ev@Base 5.3.0+git20150512
 _ZN5Baloo13DocTermsCodecC2Ev@Base 5.3.0+git20150512
 _ZN5Baloo13DocumentUrlDB3addEyyRK10QByteArray@Base 5.3.0+git20150512
 _ZN5Baloo13DocumentUrlDB3putEyRK10QByteArray@Base 5.3.0+git20150512
 _ZN5Baloo13DocumentUrlDB6renameEyRK10QByteArray@Base 5.3.0+git20150512
 _ZN5Baloo13DocumentUrlDBC1EjjP7MDB_txn@Base 5.3.0+git20150512
 _ZN5Baloo13DocumentUrlDBC2EjjP7MDB_txn@Base 5.3.0+git20150512
 _ZN5Baloo13DocumentUrlDBD1Ev@Base 5.3.0+git20150512
 _ZN5Baloo13DocumentUrlDBD2Ev@Base 5.3.0+git20150512
 _ZN5Baloo13PositionCodec6decodeERK10QByteArray@Base 5.3.0+git20150512
 _ZN5Baloo13PositionCodec6encodeERK7QVectorINS_12PositionInfoEE@Base 5.3.0+git20150512
 _ZN5Baloo13PositionCodecC1Ev@Base 5.3.0+git20150512
 _ZN5Baloo13PositionCodecC2Ev@Base 5.3.0+git20150512
 _ZN5Baloo13TermGenerator11setPositionEi@Base 5.3.0+git20150512
 _ZN5Baloo13TermGenerator14indexXattrTextERK7QStringRK10QByteArrayi@Base 5.3.0+git20150512
 _ZN5Baloo13TermGenerator17indexFileNameTextERK7QStringRK10QByteArrayi@Base 5.3.0+git20150512
 _ZN5Baloo13TermGenerator17indexFileNameTextERK7QStringi@Base 5.3.0+git20150512
 _ZN5Baloo13TermGenerator8termListERK7QString@Base 5.3.0+git20150512
 _ZN5Baloo13TermGenerator9indexTextERK7QStringRK10QByteArrayi@Base 5.3.0+git20150512
 _ZN5Baloo13TermGenerator9indexTextERK7QStringi@Base 5.3.0+git20150512
 _ZN5Baloo13TermGeneratorC1EPNS_8DocumentE@Base 5.3.0+git20150512
 _ZN5Baloo13TermGeneratorC2EPNS_8DocumentE@Base 5.3.0+git20150512
 _ZN5Baloo13encodeFixed32EPcj@Base 5.3.0+git20150512
 _ZN5Baloo13encodeFixed64EPcy@Base 5.3.0+git20150512
 _ZN5Baloo14DocumentDataDB3delEy@Base 5.3.0+git20150512
 _ZN5Baloo14DocumentDataDB3getEy@Base 5.3.0+git20150512
 _ZN5Baloo14DocumentDataDB3putEyRK10QByteArray@Base 5.3.0+git20150512
 _ZN5Baloo14DocumentDataDB4openEP7MDB_txn@Base 5.3.0+git20150512
 _ZN5Baloo14DocumentDataDB6createEP7MDB_txn@Base 5.3.0+git20150512
 _ZN5Baloo14DocumentDataDB8containsEy@Base 5.3.0+git20150512
 _ZN5Baloo14DocumentDataDBC1EjP7MDB_txn@Base 5.3.0+git20150512
 _ZN5Baloo14DocumentDataDBC2EjP7MDB_txn@Base 5.3.0+git20150512
 _ZN5Baloo14DocumentDataDBD1Ev@Base 5.3.0+git20150512
 _ZN5Baloo14DocumentDataDBD2Ev@Base 5.3.0+git20150512
 _ZN5Baloo14DocumentTimeDB3delEy@Base 5.3.0+git20150512
 _ZN5Baloo14DocumentTimeDB3getEy@Base 5.3.0+git20150512
 _ZN5Baloo14DocumentTimeDB3putEyRKNS0_8TimeInfoE@Base 5.3.0+git20150512
 _ZN5Baloo14DocumentTimeDB4openEP7MDB_txn@Base 5.3.0+git20150512
 _ZN5Baloo14DocumentTimeDB6createEP7MDB_txn@Base 5.3.0+git20150512
 _ZN5Baloo14DocumentTimeDB8containsEy@Base 5.3.0+git20150512
 _ZN5Baloo14DocumentTimeDBC1EjP7MDB_txn@Base 5.3.0+git20150512
 _ZN5Baloo14DocumentTimeDBC2EjP7MDB_txn@Base 5.3.0+git20150512
 _ZN5Baloo14DocumentTimeDBD1Ev@Base 5.3.0+git20150512
 _ZN5Baloo14DocumentTimeDBD2Ev@Base 5.3.0+git20150512
 _ZN5Baloo14encodeVarint32EPcj@Base 5.3.0+git20150512
 _ZN5Baloo14encodeVarint64EPcy@Base 5.3.0+git20150512
 _ZN5Baloo14getVarint64PtrEPKcS1_Py@Base 5.3.0+git20150512
 _ZN5Baloo15PostingIterator6skipToEy@Base 5.3.0+git20150512
 _ZN5Baloo15PostingIterator9positionsEv@Base 5.3.0+git20150512
 _ZN5Baloo15PostingIteratorD0Ev@Base 5.3.0+git20150512
 _ZN5Baloo15PostingIteratorD1Ev@Base 5.3.0+git20150512
 _ZN5Baloo15PostingIteratorD2Ev@Base 5.3.0+git20150512
 _ZN5Baloo16WriteTransaction11addDocumentERKNS_8DocumentE@Base 5.9.1+git20150601.1653
 _ZN5Baloo16WriteTransaction11removeTermsEyRK7QVectorI10QByteArrayE@Base 5.9.1+git20150601.1653
 _ZN5Baloo16WriteTransaction12replaceTermsEyRK7QVectorI10QByteArrayERK4QMapIS2_NS_8Document8TermDataEE@Base 5.9.1+git20150601.1653
 _ZN5Baloo16WriteTransaction14removeDocumentEy@Base 5.9.1+git20150601.1653
 _ZN5Baloo16WriteTransaction15replaceDocumentERKNS_8DocumentE6QFlagsINS_17DocumentOperationEE@Base 5.9.1+git20150601.1653
 _ZN5Baloo16WriteTransaction17removeRecursivelyEy@Base 5.9.1+git20150601.1653
 _ZN5Baloo16WriteTransaction6commitEv@Base 5.9.1+git20150601.1653
 _ZN5Baloo16WriteTransaction8addTermsEyRK4QMapI10QByteArrayNS_8Document8TermDataEE@Base 5.9.1+git20150601.1653
 _ZN5Baloo17OrPostingIterator4nextEv@Base 5.3.0+git20150512
 _ZN5Baloo17OrPostingIteratorC1ERK7QVectorIPNS_15PostingIteratorEE@Base 5.3.0+git20150512
 _ZN5Baloo17OrPostingIteratorC2ERK7QVectorIPNS_15PostingIteratorEE@Base 5.3.0+git20150512
 _ZN5Baloo17OrPostingIteratorD0Ev@Base 5.3.0+git20150512
 _ZN5Baloo17OrPostingIteratorD1Ev@Base 5.3.0+git20150512
 _ZN5Baloo17OrPostingIteratorD2Ev@Base 5.3.0+git20150512
 _ZN5Baloo17PhraseAndIterator21checkIfPositionsMatchEv@Base 5.3.0+git20150512
 _ZN5Baloo17PhraseAndIterator4nextEv@Base 5.3.0+git20150512
 _ZN5Baloo17PhraseAndIteratorC1ERK7QVectorIPNS_15PostingIteratorEE@Base 5.3.0+git20150512
 _ZN5Baloo17PhraseAndIteratorC2ERK7QVectorIPNS_15PostingIteratorEE@Base 5.3.0+git20150512
 _ZN5Baloo17PhraseAndIteratorD0Ev@Base 5.3.0+git20150512
 _ZN5Baloo17PhraseAndIteratorD1Ev@Base 5.3.0+git20150512
 _ZN5Baloo17PhraseAndIteratorD2Ev@Base 5.3.0+git20150512
 _ZN5Baloo18AndPostingIterator4nextEv@Base 5.3.0+git20150512
 _ZN5Baloo18AndPostingIteratorC1ERK7QVectorIPNS_15PostingIteratorEE@Base 5.3.0+git20150512
 _ZN5Baloo18AndPostingIteratorC2ERK7QVectorIPNS_15PostingIteratorEE@Base 5.3.0+git20150512
 _ZN5Baloo18AndPostingIteratorD0Ev@Base 5.3.0+git20150512
 _ZN5Baloo18AndPostingIteratorD1Ev@Base 5.3.0+git20150512
 _ZN5Baloo18AndPostingIteratorD2Ev@Base 5.3.0+git20150512
 _ZN5Baloo21VectorPostingIterator4nextEv@Base 5.3.0+git20150512
 _ZN5Baloo21VectorPostingIteratorC1ERK7QVectorIyE@Base 5.3.0+git20150512
 _ZN5Baloo21VectorPostingIteratorC2ERK7QVectorIyE@Base 5.3.0+git20150512
 _ZN5Baloo21VectorPostingIteratorD0Ev@Base 5.3.0+git20150512
 _ZN5Baloo21VectorPostingIteratorD1Ev@Base 5.3.0+git20150512
 _ZN5Baloo21VectorPostingIteratorD2Ev@Base 5.3.0+git20150512
 _ZN5Baloo22getVarint32PtrFallbackEPcS0_Pj@Base 5.3.0+git20150512
 _ZN5Baloo23getDifferentialVarInt32EPcS0_P7QVectorIjE@Base 5.3.0+git20150512
 _ZN5Baloo23putDifferentialVarInt32EP10QByteArrayRK7QVectorIjE@Base 5.3.0+git20150512
 _ZN5Baloo26VectorPositionInfoIterator4nextEv@Base 5.3.0+git20150512
 _ZN5Baloo26VectorPositionInfoIterator9positionsEv@Base 5.3.0+git20150512
 _ZN5Baloo26VectorPositionInfoIteratorC1ERK7QVectorINS_12PositionInfoEE@Base 5.3.0+git20150512
 _ZN5Baloo26VectorPositionInfoIteratorC2ERK7QVectorINS_12PositionInfoEE@Base 5.3.0+git20150512
 _ZN5Baloo26VectorPositionInfoIteratorD0Ev@Base 5.3.0+git20150512
 _ZN5Baloo26VectorPositionInfoIteratorD1Ev@Base 5.3.0+git20150512
 _ZN5Baloo26VectorPositionInfoIteratorD2Ev@Base 5.3.0+git20150512
 _ZN5Baloo7MTimeDB3delEjy@Base 5.3.0+git20150512
 _ZN5Baloo7MTimeDB3getEy@Base 5.3.0+git20150512
 _ZN5Baloo7MTimeDB3putEjy@Base 5.3.0+git20150512
 _ZN5Baloo7MTimeDB4iterEjNS0_10ComparatorE@Base 5.3.0+git20150512
 _ZN5Baloo7MTimeDB4openEP7MDB_txn@Base 5.3.0+git20150512
 _ZN5Baloo7MTimeDB6createEP7MDB_txn@Base 5.3.0+git20150512
 _ZN5Baloo7MTimeDB9iterRangeEjj@Base 5.3.0+git20150512
 _ZN5Baloo7MTimeDBC1EjP7MDB_txn@Base 5.3.0+git20150512
 _ZN5Baloo7MTimeDBC2EjP7MDB_txn@Base 5.3.0+git20150512
 _ZN5Baloo7MTimeDBD1Ev@Base 5.3.0+git20150512
 _ZN5Baloo7MTimeDBD2Ev@Base 5.3.0+git20150512
 _ZN5Baloo8Database4openENS0_8OpenModeE@Base 5.3.0+git20150512
 _ZN5Baloo8DatabaseC1ERK7QString@Base 5.3.0+git20150512
 _ZN5Baloo8DatabaseC2ERK7QString@Base 5.3.0+git20150512
 _ZN5Baloo8DatabaseD1Ev@Base 5.3.0+git20150512
 _ZN5Baloo8DatabaseD2Ev@Base 5.3.0+git20150512
 _ZN5Baloo8Document11addBoolTermERK10QByteArray@Base 5.3.0+git20150512
 _ZN5Baloo8Document12addXattrTermERK10QByteArrayi@Base 5.3.0+git20150512
 _ZN5Baloo8Document15addFileNameTermERK10QByteArrayi@Base 5.3.0+git20150512
 _ZN5Baloo8Document15addPositionTermERK10QByteArrayii@Base 5.3.0+git20150512
 _ZN5Baloo8Document16addXattrBoolTermERK10QByteArray@Base 5.3.0+git20150512
 _ZN5Baloo8Document18setContentIndexingEb@Base 5.3.0+git20150512
 _ZN5Baloo8Document20addXattrPositionTermERK10QByteArrayii@Base 5.3.0+git20150512
 _ZN5Baloo8Document23addFileNamePositionTermERK10QByteArrayii@Base 5.3.0+git20150512
 _ZN5Baloo8Document5setIdEy@Base 5.3.0+git20150512
 _ZN5Baloo8Document6setUrlERK10QByteArray@Base 5.3.0+git20150512
 _ZN5Baloo8Document7addTermERK10QByteArrayi@Base 5.3.0+git20150512
 _ZN5Baloo8Document7setDataERK10QByteArray@Base 5.3.0+git20150512
 _ZN5Baloo8DocumentC1Ev@Base 5.3.0+git20150512
 _ZN5Baloo8DocumentC2Ev@Base 5.3.0+git20150512
 _ZN5Baloo8IdTreeDB3delEy@Base 5.3.0+git20150512
 _ZN5Baloo8IdTreeDB3getEy@Base 5.3.0+git20150512
 _ZN5Baloo8IdTreeDB3putEy7QVectorIyE@Base 5.3.0+git20150512
 _ZN5Baloo8IdTreeDB4iterEy@Base 5.3.0+git20150512
 _ZN5Baloo8IdTreeDB4openEP7MDB_txn@Base 5.3.0+git20150512
 _ZN5Baloo8IdTreeDB6createEP7MDB_txn@Base 5.3.0+git20150512
 _ZN5Baloo8IdTreeDBC1EjP7MDB_txn@Base 5.3.0+git20150512
 _ZN5Baloo8IdTreeDBC2EjP7MDB_txn@Base 5.3.0+git20150512
 _ZN5Baloo8IdTreeDBD1Ev@Base 5.3.0+git20150512
 _ZN5Baloo8IdTreeDBD2Ev@Base 5.3.0+git20150512
 _ZN5Baloo9PostingDB10prefixIterERK10QByteArray@Base 5.3.0+git20150512
 _ZN5Baloo9PostingDB10regexpIterERK18QRegularExpressionRK10QByteArray@Base 5.3.0+git20150512
 _ZN5Baloo9PostingDB22fetchTermsStartingWithERK10QByteArray@Base 5.3.0+git20150512
 _ZN5Baloo9PostingDB3delERK10QByteArray@Base 5.3.0+git20150512
 _ZN5Baloo9PostingDB3getERK10QByteArray@Base 5.3.0+git20150512
 _ZN5Baloo9PostingDB3putERK10QByteArrayRK7QVectorIyE@Base 5.3.0+git20150512
 _ZN5Baloo9PostingDB4iterERK10QByteArray@Base 5.3.0+git20150512
 _ZN5Baloo9PostingDB4openEP7MDB_txn@Base 5.3.0+git20150512
 _ZN5Baloo9PostingDB6createEP7MDB_txn@Base 5.3.0+git20150512
 _ZN5Baloo9PostingDB8compIterERK10QByteArrayS3_NS0_10ComparatorE@Base 5.3.0+git20150512
 _ZN5Baloo9PostingDBC1EjP7MDB_txn@Base 5.3.0+git20150512
 _ZN5Baloo9PostingDBC2EjP7MDB_txn@Base 5.3.0+git20150512
 _ZN5Baloo9PostingDBD1Ev@Base 5.3.0+git20150512
 _ZN5Baloo9PostingDBD2Ev@Base 5.3.0+git20150512
 _ZNK5Baloo10DocumentDB9toTestMapEv@Base 5.9.1+git20150601.1653
 _ZNK5Baloo10PositionDB9toTestMapEv@Base 5.9.1+git20150601.1653
 _ZNK5Baloo11Transaction10hasChangesEv@Base 5.3.0+git20150512
 _ZNK5Baloo12DocumentIdDB12toTestVectorEv@Base 5.9.1+git20150601.1653
 _ZNK5Baloo12IdFilenameDB9toTestMapEv@Base 5.9.1+git20150601.1653
 _ZNK5Baloo13DocumentUrlDB11getChildrenEy@Base 5.9.1+git20150601.1653
 _ZNK5Baloo13DocumentUrlDB3getEy@Base 5.9.1+git20150601.1653
 _ZNK5Baloo13DocumentUrlDB5getIdEyRK10QByteArray@Base 5.9.1+git20150601.1653
 _ZNK5Baloo13DocumentUrlDB9toTestMapEv@Base 5.9.1+git20150601.1653
 _ZNK5Baloo13TermGenerator8positionEv@Base 5.3.0+git20150512
 _ZNK5Baloo14DocumentDataDB9toTestMapEv@Base 5.9.1+git20150601.1653
 _ZNK5Baloo14DocumentTimeDB9toTestMapEv@Base 5.9.1+git20150601.1653
 _ZNK5Baloo17OrPostingIterator5docIdEv@Base 5.3.0+git20150512
 _ZNK5Baloo17PhraseAndIterator5docIdEv@Base 5.3.0+git20150512
 _ZNK5Baloo18AndPostingIterator5docIdEv@Base 5.3.0+git20150512
 _ZNK5Baloo21VectorPostingIterator5docIdEv@Base 5.3.0+git20150512
 _ZNK5Baloo26VectorPositionInfoIterator5docIdEv@Base 5.3.0+git20150512
 _ZNK5Baloo7MTimeDB9toTestMapEv@Base 5.9.1+git20150601.1653
 _ZNK5Baloo8Database4pathEv@Base 5.3.0+git20150512
 _ZNK5Baloo8Document15contentIndexingEv@Base 5.3.0+git20150512
 _ZNK5Baloo8Document2idEv@Base 5.3.0+git20150512
 _ZNK5Baloo8Document3urlEv@Base 5.3.0+git20150512
 _ZNK5Baloo8IdTreeDB9toTestMapEv@Base 5.9.1+git20150601.1653
 _ZNK5Baloo9PostingDB9toTestMapEv@Base 5.9.1+git20150601.1653
 _ZTIN5Baloo15PostingIteratorE@Base 5.3.0+git20150512
 _ZTIN5Baloo17OrPostingIteratorE@Base 5.3.0+git20150512
 _ZTIN5Baloo17PhraseAndIteratorE@Base 5.3.0+git20150512
 _ZTIN5Baloo18AndPostingIteratorE@Base 5.3.0+git20150512
 _ZTIN5Baloo21VectorPostingIteratorE@Base 5.3.0+git20150512
 _ZTIN5Baloo26VectorPositionInfoIteratorE@Base 5.3.0+git20150512
 _ZTSN5Baloo15PostingIteratorE@Base 5.3.0+git20150512
 _ZTSN5Baloo17OrPostingIteratorE@Base 5.3.0+git20150512
 _ZTSN5Baloo17PhraseAndIteratorE@Base 5.3.0+git20150512
 _ZTSN5Baloo18AndPostingIteratorE@Base 5.3.0+git20150512
 _ZTSN5Baloo21VectorPostingIteratorE@Base 5.3.0+git20150512
 _ZTSN5Baloo26VectorPositionInfoIteratorE@Base 5.3.0+git20150512
 _ZTVN5Baloo15PostingIteratorE@Base 5.3.0+git20150512
 _ZTVN5Baloo17OrPostingIteratorE@Base 5.3.0+git20150512
 _ZTVN5Baloo17PhraseAndIteratorE@Base 5.3.0+git20150512
 _ZTVN5Baloo18AndPostingIteratorE@Base 5.3.0+git20150512
 _ZTVN5Baloo21VectorPostingIteratorE@Base 5.3.0+git20150512
 _ZTVN5Baloo26VectorPositionInfoIteratorE@Base 5.3.0+git20150512
