# SymbolsHelper-Confirmed: 4:5.9.0+git20150512 amd64
libKF5BalooXapian.so.1 libkf5balooxapian1 #MINVER#
 _ZN5Baloo14XapianDatabase14deleteDocumentEj@Base 4:5.9.0+git20150512
 _ZN5Baloo14XapianDatabase15replaceDocumentEjRKN6Xapian8DocumentE@Base 4:5.9.0+git20150512
 _ZN5Baloo14XapianDatabase15replaceDocumentEjRKNS_14XapianDocumentE@Base 4:5.9.0+git20150512
 _ZN5Baloo14XapianDatabase16createWritableDbEv@Base 4:5.9.0+git20150512
 _ZN5Baloo14XapianDatabase6commitEv@Base 4:5.9.0+git20150512
 _ZN5Baloo14XapianDatabase8documentEj@Base 4:5.9.0+git20150512
 _ZN5Baloo14XapianDatabaseC1ERK7QStringb@Base 4:5.9.0+git20150512
 _ZN5Baloo14XapianDatabaseC2ERK7QStringb@Base 4:5.9.0+git20150512
 _ZN5Baloo14XapianDatabaseD1Ev@Base 4:5.9.0+git20150512
 _ZN5Baloo14XapianDatabaseD2Ev@Base 4:5.9.0+git20150512
 _ZN5Baloo14XapianDocument11addBoolTermERK7QStringS3_@Base 4:5.9.0+git20150512
 _ZN5Baloo14XapianDocument11addBoolTermEiRK7QString@Base 4:5.9.0+git20150512
 _ZN5Baloo14XapianDocument19fetchTermStartsWithERK10QByteArray@Base 4:5.9.0+git20150512
 _ZN5Baloo14XapianDocument20removeTermStartsWithERK10QByteArray@Base 4:5.9.0+git20150512
 _ZN5Baloo14XapianDocument7addTermERK7QStringS3_@Base 4:5.9.0+git20150512
 _ZN5Baloo14XapianDocument8addValueEiRK7QString@Base 4:5.9.0+git20150512
 _ZN5Baloo14XapianDocument9indexTextERK7QStringS3_i@Base 4:5.9.0+git20150512
 _ZN5Baloo14XapianDocument9indexTextERK7QStringi@Base 4:5.9.0+git20150512
 _ZN5Baloo14XapianDocumentC1ERKN6Xapian8DocumentE@Base 4:5.9.0+git20150512
 _ZN5Baloo14XapianDocumentC1Ev@Base 4:5.9.0+git20150512
 _ZN5Baloo14XapianDocumentC2ERKN6Xapian8DocumentE@Base 4:5.9.0+git20150512
 _ZN5Baloo14XapianDocumentC2Ev@Base 4:5.9.0+git20150512
 _ZN5Baloo17XapianQueryParser10expandWordERK7QStringS3_@Base 4:5.9.0+git20150512
 _ZN5Baloo17XapianQueryParser10parseQueryERK7QStringS3_@Base 4:5.9.0+git20150512
 _ZN5Baloo17XapianQueryParser11setDatabaseEPN6Xapian8DatabaseE@Base 4:5.9.0+git20150512
 _ZN5Baloo17XapianQueryParser14setAutoExapandEb@Base 4:5.9.0+git20150512
 _ZN5Baloo17XapianQueryParserC1Ev@Base 4:5.9.0+git20150512
 _ZN5Baloo17XapianQueryParserC2Ev@Base 4:5.9.0+git20150512
 _ZN5Baloo19XapianTermGenerator11setDocumentEPN6Xapian8DocumentE@Base 4:5.9.0+git20150512
 _ZN5Baloo19XapianTermGenerator11setPositionEi@Base 4:5.9.0+git20150512
 _ZN5Baloo19XapianTermGenerator8termListERK7QString@Base 4:5.9.0+git20150512
 _ZN5Baloo19XapianTermGenerator9indexTextERK7QString@Base 4:5.9.0+git20150512
 _ZN5Baloo19XapianTermGenerator9indexTextERK7QStringS3_i@Base 4:5.9.0+git20150512
 _ZN5Baloo19XapianTermGeneratorC1EPN6Xapian8DocumentE@Base 4:5.9.0+git20150512
 _ZN5Baloo19XapianTermGeneratorC2EPN6Xapian8DocumentE@Base 4:5.9.0+git20150512
 (optional=templinst)_ZN6Xapian5QueryC1IN5QListIS0_E8iteratorEEENS0_2opET_S6_j@Base 4:5.9.0+git20150512
 (optional=templinst)_ZN6Xapian5QueryC2IN5QListIS0_E8iteratorEEENS0_2opET_S6_j@Base 4:5.9.0+git20150512
 _ZNK5Baloo14XapianDatabase11haveChangesEv@Base 4:5.9.0+git20150512
 _ZNK5Baloo14XapianDocument3docEv@Base 4:5.9.0+git20150512
 _ZNK5Baloo14XapianDocument5valueEi@Base 4:5.9.0+git20150512
 _ZNK5Baloo19XapianTermGenerator8positionEv@Base 4:5.9.0+git20150512
 _ZTIN6Xapian12RuntimeErrorE@Base 4:5.9.0+git20150512
 _ZTIN6Xapian13DatabaseErrorE@Base 4:5.9.0+git20150512
 _ZTIN6Xapian17DatabaseLockErrorE@Base 4:5.9.0+git20150512
 _ZTIN6Xapian19DatabaseCreateErrorE@Base 4:5.9.0+git20150512
 _ZTIN6Xapian20DatabaseCorruptErrorE@Base 4:5.9.0+git20150512
 _ZTIN6Xapian21DatabaseModifiedErrorE@Base 4:5.9.0+git20150512
 _ZTIN6Xapian5ErrorE@Base 4:5.9.0+git20150512
 _ZTSN6Xapian12RuntimeErrorE@Base 4:5.9.0+git20150512
 _ZTSN6Xapian13DatabaseErrorE@Base 4:5.9.0+git20150512
 _ZTSN6Xapian17DatabaseLockErrorE@Base 4:5.9.0+git20150512
 _ZTSN6Xapian19DatabaseCreateErrorE@Base 4:5.9.0+git20150512
 _ZTSN6Xapian20DatabaseCorruptErrorE@Base 4:5.9.0+git20150512
 _ZTSN6Xapian21DatabaseModifiedErrorE@Base 4:5.9.0+git20150512
 _ZTSN6Xapian5ErrorE@Base 4:5.9.0+git20150512
